; Function Attrs: mustprogress uwtable
define hidden void @_ZN6google8protobuf8compiler3cpp10UniqueNameB5cxx11ESt17basic_string_viewIcSt11char_traitsIcEES6_RKNS2_7OptionsE(ptr noalias sret(%"class.std::__cxx11::basic_string") align 8 %agg.result, i64 %name.coerce0, ptr %name.coerce1, i64 %filename.coerce0, ptr nocapture readonly %filename.coerce1, ptr nocapture noundef nonnull readnone align 8 dereferenceable(206) %options) local_unnamed_addr #4 personality ptr @__gxx_personality_v0 {
entry:
  %ref.tmp = alloca %"class.absl::lts_20230802::AlphaNum", align 8
  %ref.tmp1 = alloca %"class.absl::lts_20230802::AlphaNum", align 8
  %ref.tmp2 = alloca %"class.absl::lts_20230802::AlphaNum", align 8
  %ref.tmp3 = alloca %"class.std::__cxx11::basic_string", align 8
  store i64 %name.coerce0, ptr %ref.tmp, align 8
  %pc.sroa.2.0.piece_.sroa_idx.i = getelementptr inbounds i8, ptr %ref.tmp, i64 8
  store ptr %name.coerce1, ptr %pc.sroa.2.0.piece_.sroa_idx.i, align 8
  store i64 1, ptr %ref.tmp1, align 8
  %0 = getelementptr inbounds i8, ptr %ref.tmp1, i64 8
  store ptr @.str.32, ptr %0, align 8
  call void @_ZN6google8protobuf8compiler3cpp18FilenameIdentifierB5cxx11ESt17basic_string_viewIcSt11char_traitsIcEE(ptr nonnull sret(%"class.std::__cxx11::basic_string") align 8 %ref.tmp3, i64 %filename.coerce0, ptr %filename.coerce1)
  %call.i = call { i64, ptr } @_ZNKSt7__cxx1112basic_stringIcSt11char_traitsIcESaIcEEcvSt17basic_string_viewIcS2_EEv(ptr noundef nonnull align 8 dereferenceable(32) %ref.tmp3) #26
  %1 = extractvalue { i64, ptr } %call.i, 0
  store i64 %1, ptr %ref.tmp2, align 8
  %2 = getelementptr inbounds i8, ptr %ref.tmp2, i64 8
  %3 = extractvalue { i64, ptr } %call.i, 1
  store ptr %3, ptr %2, align 8
  invoke void @_ZN4absl12lts_202308026StrCatB5cxx11ERKNS0_8AlphaNumES3_S3_(ptr sret(%"class.std::__cxx11::basic_string") align 8 %agg.result, ptr noundef nonnull align 8 dereferenceable(48) %ref.tmp, ptr noundef nonnull align 8 dereferenceable(48) %ref.tmp1, ptr noundef nonnull align 8 dereferenceable(48) %ref.tmp2)
          to label %invoke.cont5 unwind label %lpad

invoke.cont5:                                     ; preds = %entry
  call void @_ZNSt7__cxx1112basic_stringIcSt11char_traitsIcESaIcEED1Ev(ptr noundef nonnull align 8 dereferenceable(32) %ref.tmp3) #26
  ret void

lpad:                                             ; preds = %entry
  %4 = landingpad { ptr, i32 }
          cleanup
  call void @_ZNSt7__cxx1112basic_stringIcSt11char_traitsIcESaIcEED1Ev(ptr noundef nonnull align 8 dereferenceable(32) %ref.tmp3) #26
  resume { ptr, i32 } %4
}